target datalayout = "e-m:e-p270:32:32-p271:32:32-p272:64:64-i64:64-i128:128-f80:128-n8:16:32:64-S128"
target triple = "x86_64-pc-linux-gnu"

%"struct.url::URLComponentSource" = type { ptr, ptr, ptr, ptr, ptr, ptr, ptr, ptr }
%"struct.url::Component" = type { i32, i32 }
%"struct.url::Parsed" = type { %"struct.url::Component", %"struct.url::Component", %"struct.url::Component", %"struct.url::Component", %"struct.url::Component", %"struct.url::Component", %"struct.url::Component", %"struct.url::Component", ptr }

; Function Attrs: mustprogress nounwind uwtable
define linkonce_odr void @_ZN3url18URLComponentSourceIcEC2EPKc(ptr noundef nonnull align 8 dereferenceable(64) %0, ptr noundef %1) unnamed_addr #2 comdat align 2 {
  %3 = alloca ptr, align 8
  %4 = alloca ptr, align 8
  store ptr %0, ptr %3, align 8, !tbaa !14
  store ptr %1, ptr %4, align 8, !tbaa !3
  %5 = load ptr, ptr %3, align 8
  %6 = getelementptr inbounds nuw %"struct.url::URLComponentSource", ptr %5, i32 0, i32 0
  %7 = load ptr, ptr %4, align 8, !tbaa !3
  store ptr %7, ptr %6, align 8, !tbaa !33
  %8 = getelementptr inbounds nuw %"struct.url::URLComponentSource", ptr %5, i32 0, i32 1
  %9 = load ptr, ptr %4, align 8, !tbaa !3
  store ptr %9, ptr %8, align 8, !tbaa !34
  %10 = getelementptr inbounds nuw %"struct.url::URLComponentSource", ptr %5, i32 0, i32 2
  %11 = load ptr, ptr %4, align 8, !tbaa !3
  store ptr %11, ptr %10, align 8, !tbaa !35
  %12 = getelementptr inbounds nuw %"struct.url::URLComponentSource", ptr %5, i32 0, i32 3
  %13 = load ptr, ptr %4, align 8, !tbaa !3
  store ptr %13, ptr %12, align 8, !tbaa !36
  %14 = getelementptr inbounds nuw %"struct.url::URLComponentSource", ptr %5, i32 0, i32 4
  %15 = load ptr, ptr %4, align 8, !tbaa !3
  store ptr %15, ptr %14, align 8, !tbaa !37
  %16 = getelementptr inbounds nuw %"struct.url::URLComponentSource", ptr %5, i32 0, i32 5
  %17 = load ptr, ptr %4, align 8, !tbaa !3
  store ptr %17, ptr %16, align 8, !tbaa !24
  %18 = getelementptr inbounds nuw %"struct.url::URLComponentSource", ptr %5, i32 0, i32 6
  %19 = load ptr, ptr %4, align 8, !tbaa !3
  store ptr %19, ptr %18, align 8, !tbaa !32
  %20 = getelementptr inbounds nuw %"struct.url::URLComponentSource", ptr %5, i32 0, i32 7
  %21 = load ptr, ptr %4, align 8, !tbaa !3
  store ptr %21, ptr %20, align 8, !tbaa !38
  ret void
}

; Function Attrs: mustprogress uwtable
define noundef zeroext i1 @_ZN3url16ReplaceMailtoURLEPKcRKNS_6ParsedERKNS_12ReplacementsIcEEPNS_12CanonOutputTIcEEPS2_(ptr noundef %0, ptr noundef nonnull align 8 dereferenceable(72) %1, ptr noundef nonnull align 8 dereferenceable(136) %2, ptr noundef %3, ptr noundef %4) #0 personality ptr @__gxx_personality_v0 {
  %6 = alloca ptr, align 8
  %7 = alloca ptr, align 8
  %8 = alloca ptr, align 8
  %9 = alloca ptr, align 8
  %10 = alloca ptr, align 8
  %11 = alloca %"struct.url::URLComponentSource", align 8
  %12 = alloca %"struct.url::Parsed", align 8
  %13 = alloca ptr, align 8
  %14 = alloca i32, align 4
  store ptr %0, ptr %6, align 8, !tbaa !3
  store ptr %1, ptr %7, align 8, !tbaa !10
  store ptr %2, ptr %8, align 8, !tbaa !55
  store ptr %3, ptr %9, align 8, !tbaa !12
  store ptr %4, ptr %10, align 8, !tbaa !10
  call void @llvm.lifetime.start.p0(i64 64, ptr %11) #11
  %15 = load ptr, ptr %6, align 8, !tbaa !3
  call void @_ZN3url18URLComponentSourceIcEC2EPKc(ptr noundef nonnull align 8 dereferenceable(64) %11, ptr noundef %15)
  call void @llvm.lifetime.start.p0(i64 72, ptr %12) #11
  %16 = load ptr, ptr %7, align 8, !tbaa !10
  call void @_ZN3url6ParsedC1ERKS0_(ptr noundef nonnull align 8 dereferenceable(72) %12, ptr noundef nonnull align 8 dereferenceable(72) %16)
  %17 = load ptr, ptr %6, align 8, !tbaa !3
  %18 = load ptr, ptr %8, align 8, !tbaa !55
  invoke void @_ZN3url23SetupOverrideComponentsEPKcRKNS_12ReplacementsIcEEPNS_18URLComponentSourceIcEEPNS_6ParsedE(ptr noundef %17, ptr noundef nonnull align 8 dereferenceable(136) %18, ptr noundef %11, ptr noundef %12)
          to label %19 unwind label %24

19:                                               ; preds = %5
  %20 = load ptr, ptr %9, align 8, !tbaa !12
  %21 = load ptr, ptr %10, align 8, !tbaa !10
  %22 = invoke noundef zeroext i1 @_ZN3url12_GLOBAL__N_123DoCanonicalizeMailtoURLIchEEbRKNS_18URLComponentSourceIT_EERKNS_6ParsedEPNS_12CanonOutputTIcEEPS7_(ptr noundef nonnull align 8 dereferenceable(64) %11, ptr noundef nonnull align 8 dereferenceable(72) %12, ptr noundef %20, ptr noundef %21)
          to label %23 unwind label %24

23:                                               ; preds = %19
  call void @_ZN3url6ParsedD1Ev(ptr noundef nonnull align 8 dereferenceable(72) %12) #11
  call void @llvm.lifetime.end.p0(i64 72, ptr %12) #11
  call void @llvm.lifetime.end.p0(i64 64, ptr %11) #11
  ret i1 %22

24:                                               ; preds = %19, %5
  %25 = landingpad { ptr, i32 }
          cleanup
  %26 = extractvalue { ptr, i32 } %25, 0
  store ptr %26, ptr %13, align 8
  %27 = extractvalue { ptr, i32 } %25, 1
  store i32 %27, ptr %14, align 4
  call void @_ZN3url6ParsedD1Ev(ptr noundef nonnull align 8 dereferenceable(72) %12) #11
  call void @llvm.lifetime.end.p0(i64 72, ptr %12) #11
  call void @llvm.lifetime.end.p0(i64 64, ptr %11) #11
  br label %28

28:                                               ; preds = %24
  %29 = load ptr, ptr %13, align 8
  %30 = load i32, ptr %14, align 4
  %31 = insertvalue { ptr, i32 } poison, ptr %29, 0
  %32 = insertvalue { ptr, i32 } %31, i32 %30, 1
  resume { ptr, i32 } %32
}