; Function Attrs: mustprogress uwtable
define noundef zeroext i1 @_ZN3url16ReplaceMailtoURLEPKcRKNS_6ParsedERKNS_12ReplacementsIcEEPNS_12CanonOutputTIcEEPS2_(ptr noundef %0, ptr noundef nonnull align 8 dereferenceable(72) %1, ptr noundef nonnull align 8 dereferenceable(136) %2, ptr noundef %3, ptr noundef %4) local_unnamed_addr #0 personality ptr @__gxx_personality_v0 {
  %6 = alloca %"struct.url::URLComponentSource", align 8
  %7 = alloca %"struct.url::Parsed", align 8
  call void @llvm.lifetime.start.p0(i64 64, ptr nonnull %6) #11
  store ptr %0, ptr %6, align 8, !tbaa !3
  %8 = getelementptr inbounds nuw i8, ptr %6, i64 8
  store ptr %0, ptr %8, align 8, !tbaa !9
  %9 = getelementptr inbounds nuw i8, ptr %6, i64 16
  store ptr %0, ptr %9, align 8, !tbaa !10
  %10 = getelementptr inbounds nuw i8, ptr %6, i64 24
  store ptr %0, ptr %10, align 8, !tbaa !11
  %11 = getelementptr inbounds nuw i8, ptr %6, i64 32
  store ptr %0, ptr %11, align 8, !tbaa !12
  %12 = getelementptr inbounds nuw i8, ptr %6, i64 40
  store ptr %0, ptr %12, align 8, !tbaa !13
  %13 = getelementptr inbounds nuw i8, ptr %6, i64 48
  store ptr %0, ptr %13, align 8, !tbaa !14
  %14 = getelementptr inbounds nuw i8, ptr %6, i64 56
  store ptr %0, ptr %14, align 8, !tbaa !15
  call void @llvm.lifetime.start.p0(i64 72, ptr nonnull %7) #11
  call void @_ZN3url6ParsedC1ERKS0_(ptr noundef nonnull align 8 dereferenceable(72) %7, ptr noundef nonnull align 8 dereferenceable(72) %1)
  invoke void @_ZN3url23SetupOverrideComponentsEPKcRKNS_12ReplacementsIcEEPNS_18URLComponentSourceIcEEPNS_6ParsedE(ptr noundef %0, ptr noundef nonnull align 8 dereferenceable(136) %2, ptr noundef nonnull %6, ptr noundef nonnull %7)
          to label %15 unwind label %18

15:                                               ; preds = %5
  %16 = invoke fastcc noundef zeroext i1 @_ZN3url12_GLOBAL__N_123DoCanonicalizeMailtoURLIchEEbRKNS_18URLComponentSourceIT_EERKNS_6ParsedEPNS_12CanonOutputTIcEEPS7_(ptr noundef nonnull align 8 dereferenceable(64) %6, ptr noundef nonnull align 8 dereferenceable(72) %7, ptr noundef %3, ptr noundef %4)
          to label %17 unwind label %18

17:                                               ; preds = %15
  call void @_ZN3url6ParsedD1Ev(ptr noundef nonnull align 8 dereferenceable(72) %7) #11
  call void @llvm.lifetime.end.p0(i64 72, ptr nonnull %7) #11
  call void @llvm.lifetime.end.p0(i64 64, ptr nonnull %6) #11
  ret i1 %16

18:                                               ; preds = %15, %5
  %19 = landingpad { ptr, i32 }
          cleanup
  call void @_ZN3url6ParsedD1Ev(ptr noundef nonnull align 8 dereferenceable(72) %7) #11
  call void @llvm.lifetime.end.p0(i64 72, ptr nonnull %7) #11
  call void @llvm.lifetime.end.p0(i64 64, ptr nonnull %6) #11
  resume { ptr, i32 } %19
}